; Function Attrs: mustprogress uwtable
define dso_local noundef zeroext i1 @_ZNK5Block9must_jumpEv(ptr nocapture noundef nonnull readonly align 8 dereferenceable(192) %0) unnamed_addr #3 align 2 {
  %2 = getelementptr inbounds i8, ptr %0, i64 32
  %3 = getelementptr inbounds i8, ptr %0, i64 40
  %4 = load ptr, ptr %3, align 8
  %5 = load ptr, ptr %2, align 8
  %6 = ptrtoint ptr %5 to i64
  %.not = icmp eq ptr %4, %5
  br i1 %.not, label %26, label %7

7:                                                ; preds = %1
  %8 = getelementptr inbounds i8, ptr %0, i64 160
  %9 = getelementptr inbounds i8, ptr %0, i64 168
  %10 = load ptr, ptr %9, align 8
  %11 = load ptr, ptr %8, align 8
  %12 = icmp eq ptr %10, %11
  br i1 %12, label %.lr.ph.preheader.i, label %26

.lr.ph.preheader.i:                               ; preds = %7
  %13 = ptrtoint ptr %4 to i64
  %14 = sub i64 %13, %6
  %15 = ashr exact i64 %14, 3
  %umax.i = tail call i64 @llvm.umax.i64(i64 %15, i64 1)
  br label %.lr.ph.i

.lr.ph.i:                                         ; preds = %.lr.ph.i, %.lr.ph.preheader.i
  %.06.i = phi i64 [ 0, %.lr.ph.preheader.i ], [ %21, %.lr.ph.i ]
  %16 = getelementptr inbounds ptr, ptr %5, i64 %.06.i
  %17 = load ptr, ptr %16, align 8
  %18 = getelementptr inbounds i8, ptr %17, i64 8
  %19 = load i32, ptr %18, align 8
  %20 = icmp eq i32 %19, 5
  %21 = add nuw i64 %.06.i, 1
  %exitcond.not.i = icmp eq i64 %21, %umax.i
  %or.cond.i = select i1 %20, i1 true, i1 %exitcond.not.i
  br i1 %or.cond.i, label %_ZNK5Block12get_last_stmEv.exit, label %.lr.ph.i, !llvm.loop !11

_ZNK5Block12get_last_stmEv.exit:                  ; preds = %.lr.ph.i
  %22 = load ptr, ptr %17, align 8
  %23 = getelementptr inbounds i8, ptr %22, i64 56
  %24 = load ptr, ptr %23, align 8
  %25 = tail call noundef zeroext i1 %24(ptr noundef nonnull align 8 dereferenceable(32) %17)
  br i1 %25, label %27, label %26

26:                                               ; preds = %_ZNK5Block12get_last_stmEv.exit, %7, %1
  br label %27

27:                                               ; preds = %_ZNK5Block12get_last_stmEv.exit, %26
  %.0 = phi i1 [ false, %26 ], [ true, %_ZNK5Block12get_last_stmEv.exit ]
  ret i1 %.0
}